target datalayout = "e-m:e-p270:32:32-p271:32:32-p272:64:64-i64:64-i128:128-f80:128-n8:16:32:64-S128"
target triple = "x86_64-pc-linux-gnu"

%struct._GArray = type { ptr, i32 }
%struct.file_type_subtype_info = type { ptr, ptr, ptr, ptr, i8, i64, ptr, ptr, ptr, ptr }

@.str.1 = private unnamed_addr constant [8 x i8] c"Wiretap\00", align 1
@.str.2 = private unnamed_addr constant [22 x i8] c"wiretap/file_access.c\00", align 1
@file_type_subtype_table_arr = internal global ptr null, align 8
@file_type_subtype_table = internal global ptr null, align 8
@type_subtype_name_map = internal global ptr null, align 8
@wtap_num_builtin_file_types_subtypes = internal global i32 0, align 4
@__func__.wtap_register_file_type_subtype = private unnamed_addr constant [32 x i8] c"wtap_register_file_type_subtype\00", align 1
@.str.9 = private unnamed_addr constant [18 x i8] c"no file type info\00", align 1
@.str.10 = private unnamed_addr constant [38 x i8] c"no blocks supported by file type \22%s\22\00", align 1
@.str.11 = private unnamed_addr constant [37 x i8] c"file type \22%s\22 is already registered\00", align 1

; Function Attrs: null_pointer_is_valid sspstrong uwtable
define i32 @wtap_name_to_file_type_subtype(ptr noundef %0) #0 {
  %2 = alloca i32, align 4
  %3 = alloca ptr, align 8
  %4 = alloca ptr, align 8
  %5 = alloca i32, align 4
  %6 = alloca i32, align 4
  store ptr %0, ptr %3, align 8
  call void @llvm.lifetime.start.p0(i64 8, ptr %4) #12
  call void @llvm.lifetime.start.p0(i64 4, ptr %5) #12
  %7 = load ptr, ptr @type_subtype_name_map, align 8
  %8 = load ptr, ptr %3, align 8
  %9 = call ptr @g_hash_table_lookup(ptr noundef %7, ptr noundef %8)
  store ptr %9, ptr %4, align 8
  %10 = load ptr, ptr %4, align 8
  %11 = icmp ne ptr %10, null
  br i1 %11, label %12, label %14

12:                                               ; preds = %1
  %13 = load ptr, ptr %4, align 8
  store ptr %13, ptr %3, align 8
  br label %14

14:                                               ; preds = %12, %1
  store i32 0, ptr %5, align 4
  br label %15

15:                                               ; preds = %42, %14
  %16 = load i32, ptr %5, align 4
  %17 = load ptr, ptr @file_type_subtype_table_arr, align 8
  %18 = getelementptr inbounds nuw %struct._GArray, ptr %17, i32 0, i32 1
  %19 = load i32, ptr %18, align 8
  %20 = icmp slt i32 %16, %19
  br i1 %20, label %21, label %45

21:                                               ; preds = %15
  %22 = load ptr, ptr @file_type_subtype_table, align 8
  %23 = load i32, ptr %5, align 4
  %24 = sext i32 %23 to i64
  %25 = getelementptr %struct.file_type_subtype_info, ptr %22, i64 %24
  %26 = getelementptr inbounds nuw %struct.file_type_subtype_info, ptr %25, i32 0, i32 1
  %27 = load ptr, ptr %26, align 8
  %28 = icmp ne ptr %27, null
  br i1 %28, label %29, label %41

29:                                               ; preds = %21
  %30 = load ptr, ptr %3, align 8
  %31 = load ptr, ptr @file_type_subtype_table, align 8
  %32 = load i32, ptr %5, align 4
  %33 = sext i32 %32 to i64
  %34 = getelementptr %struct.file_type_subtype_info, ptr %31, i64 %33
  %35 = getelementptr inbounds nuw %struct.file_type_subtype_info, ptr %34, i32 0, i32 1
  %36 = load ptr, ptr %35, align 8
  %37 = call i32 @strcmp(ptr noundef %30, ptr noundef %36) #14
  %38 = icmp eq i32 %37, 0
  br i1 %38, label %39, label %41

39:                                               ; preds = %29
  %40 = load i32, ptr %5, align 4
  store i32 %40, ptr %2, align 4
  store i32 1, ptr %6, align 4
  br label %46

41:                                               ; preds = %29, %21
  br label %42

42:                                               ; preds = %41
  %43 = load i32, ptr %5, align 4
  %44 = add i32 %43, 1
  store i32 %44, ptr %5, align 4
  br label %15, !llvm.loop !21

45:                                               ; preds = %15
  store i32 -1, ptr %2, align 4
  store i32 1, ptr %6, align 4
  br label %46

46:                                               ; preds = %45, %39
  call void @llvm.lifetime.end.p0(i64 4, ptr %5) #12
  call void @llvm.lifetime.end.p0(i64 8, ptr %4) #12
  %47 = load i32, ptr %2, align 4
  ret i32 %47
}

; Function Attrs: null_pointer_is_valid sspstrong uwtable
define i32 @wtap_register_file_type_subtype(ptr noundef %0) #0 {
  %2 = alloca i32, align 4
  %3 = alloca ptr, align 8
  %4 = alloca ptr, align 8
  %5 = alloca i32, align 4
  %6 = alloca i32, align 4
  store ptr %0, ptr %3, align 8
  call void @llvm.lifetime.start.p0(i64 8, ptr %4) #12
  call void @llvm.lifetime.start.p0(i64 4, ptr %5) #12
  %7 = load ptr, ptr %3, align 8
  %8 = icmp ne ptr %7, null
  br i1 %8, label %9, label %19

9:                                                ; preds = %1
  %10 = load ptr, ptr %3, align 8
  %11 = getelementptr inbounds nuw %struct.file_type_subtype_info, ptr %10, i32 0, i32 0
  %12 = load ptr, ptr %11, align 8
  %13 = icmp ne ptr %12, null
  br i1 %13, label %14, label %19

14:                                               ; preds = %9
  %15 = load ptr, ptr %3, align 8
  %16 = getelementptr inbounds nuw %struct.file_type_subtype_info, ptr %15, i32 0, i32 1
  %17 = load ptr, ptr %16, align 8
  %18 = icmp ne ptr %17, null
  br i1 %18, label %23, label %19

19:                                               ; preds = %14, %9, %1
  br label %20

20:                                               ; preds = %19
  call void (ptr, i32, ptr, i64, ptr, ptr, ...) @ws_log_full(ptr noundef @.str.1, i32 noundef 5, ptr noundef @.str.2, i64 noundef 1229, ptr noundef @__func__.wtap_register_file_type_subtype, ptr noundef @.str.9)
  br label %21

21:                                               ; preds = %20
  br label %22

22:                                               ; preds = %21
  store i32 -1, ptr %2, align 4
  store i32 1, ptr %6, align 4
  br label %94

23:                                               ; preds = %14
  %24 = load ptr, ptr %3, align 8
  %25 = getelementptr inbounds nuw %struct.file_type_subtype_info, ptr %24, i32 0, i32 5
  %26 = load i64, ptr %25, align 8
  %27 = icmp eq i64 %26, 0
  br i1 %27, label %33, label %28

28:                                               ; preds = %23
  %29 = load ptr, ptr %3, align 8
  %30 = getelementptr inbounds nuw %struct.file_type_subtype_info, ptr %29, i32 0, i32 6
  %31 = load ptr, ptr %30, align 8
  %32 = icmp eq ptr %31, null
  br i1 %32, label %33, label %40

33:                                               ; preds = %28, %23
  br label %34

34:                                               ; preds = %33
  %35 = load ptr, ptr %3, align 8
  %36 = getelementptr inbounds nuw %struct.file_type_subtype_info, ptr %35, i32 0, i32 1
  %37 = load ptr, ptr %36, align 8
  call void (ptr, i32, ptr, i64, ptr, ptr, ...) @ws_log_full(ptr noundef @.str.1, i32 noundef 5, ptr noundef @.str.2, i64 noundef 1238, ptr noundef @__func__.wtap_register_file_type_subtype, ptr noundef @.str.10, ptr noundef %37)
  br label %38

38:                                               ; preds = %34
  br label %39

39:                                               ; preds = %38
  store i32 -1, ptr %2, align 4
  store i32 1, ptr %6, align 4
  br label %94

40:                                               ; preds = %28
  %41 = load ptr, ptr %3, align 8
  %42 = getelementptr inbounds nuw %struct.file_type_subtype_info, ptr %41, i32 0, i32 1
  %43 = load ptr, ptr %42, align 8
  %44 = call i32 @wtap_name_to_file_type_subtype(ptr noundef %43)
  %45 = icmp ne i32 %44, -1
  br i1 %45, label %46, label %53

46:                                               ; preds = %40
  br label %47

47:                                               ; preds = %46
  %48 = load ptr, ptr %3, align 8
  %49 = getelementptr inbounds nuw %struct.file_type_subtype_info, ptr %48, i32 0, i32 1
  %50 = load ptr, ptr %49, align 8
  call void (ptr, i32, ptr, i64, ptr, ptr, ...) @ws_log_full(ptr noundef @.str.1, i32 noundef 5, ptr noundef @.str.2, i64 noundef 1249, ptr noundef @__func__.wtap_register_file_type_subtype, ptr noundef @.str.11, ptr noundef %50)
  br label %51

51:                                               ; preds = %47
  br label %52

52:                                               ; preds = %51
  store i32 -1, ptr %2, align 4
  store i32 1, ptr %6, align 4
  br label %94

53:                                               ; preds = %40
  %54 = load i32, ptr @wtap_num_builtin_file_types_subtypes, align 4
  store i32 %54, ptr %5, align 4
  br label %55

55:                                               ; preds = %80, %53
  %56 = load i32, ptr %5, align 4
  %57 = load ptr, ptr @file_type_subtype_table_arr, align 8
  %58 = getelementptr inbounds nuw %struct._GArray, ptr %57, i32 0, i32 1
  %59 = load i32, ptr %58, align 8
  %60 = icmp ult i32 %56, %59
  br i1 %60, label %61, label %83

61:                                               ; preds = %55
  %62 = load ptr, ptr @file_type_subtype_table, align 8
  %63 = load i32, ptr %5, align 4
  %64 = zext i32 %63 to i64
  %65 = getelementptr %struct.file_type_subtype_info, ptr %62, i64 %64
  %66 = getelementptr inbounds nuw %struct.file_type_subtype_info, ptr %65, i32 0, i32 1
  %67 = load ptr, ptr %66, align 8
  %68 = icmp eq ptr %67, null
  br i1 %68, label %69, label %79

69:                                               ; preds = %61
  %70 = load ptr, ptr @file_type_subtype_table_arr, align 8
  %71 = getelementptr inbounds nuw %struct._GArray, ptr %70, i32 0, i32 0
  %72 = load ptr, ptr %71, align 8
  %73 = load i32, ptr %5, align 4
  %74 = zext i32 %73 to i64
  %75 = getelementptr %struct.file_type_subtype_info, ptr %72, i64 %74
  store ptr %75, ptr %4, align 8
  %76 = load ptr, ptr %4, align 8
  %77 = load ptr, ptr %3, align 8
  call void @llvm.memcpy.p0.p0.i64(ptr align 8 %76, ptr align 8 %77, i64 80, i1 false)
  %78 = load i32, ptr %5, align 4
  store i32 %78, ptr %2, align 4
  store i32 1, ptr %6, align 4
  br label %94

79:                                               ; preds = %61
  br label %80

80:                                               ; preds = %79
  %81 = load i32, ptr %5, align 4
  %82 = add i32 %81, 1
  store i32 %82, ptr %5, align 4
  br label %55, !llvm.loop !20

83:                                               ; preds = %55
  %84 = load ptr, ptr @file_type_subtype_table_arr, align 8
  %85 = getelementptr inbounds nuw %struct._GArray, ptr %84, i32 0, i32 1
  %86 = load i32, ptr %85, align 8
  store i32 %86, ptr %5, align 4
  %87 = load ptr, ptr @file_type_subtype_table_arr, align 8
  %88 = load ptr, ptr %3, align 8
  %89 = call ptr @g_array_append_vals(ptr noundef %87, ptr noundef %88, i32 noundef 1)
  %90 = load ptr, ptr @file_type_subtype_table_arr, align 8
  %91 = getelementptr inbounds nuw %struct._GArray, ptr %90, i32 0, i32 0
  %92 = load ptr, ptr %91, align 8
  store ptr %92, ptr @file_type_subtype_table, align 8
  %93 = load i32, ptr %5, align 4
  store i32 %93, ptr %2, align 4
  store i32 1, ptr %6, align 4
  br label %94

94:                                               ; preds = %83, %69, %52, %39, %22
  call void @llvm.lifetime.end.p0(i64 4, ptr %5) #12
  call void @llvm.lifetime.end.p0(i64 8, ptr %4) #12
  %95 = load i32, ptr %2, align 4
  ret i32 %95
}