; Function Attrs: null_pointer_is_valid sspstrong uwtable
define i32 @wtap_register_file_type_subtype(ptr noundef %0) local_unnamed_addr #0 {
  %.not = icmp eq ptr %0, null
  br i1 %.not, label %7, label %2

2:                                                ; preds = %1
  %3 = load ptr, ptr %0, align 8
  %.not21 = icmp eq ptr %3, null
  br i1 %.not21, label %7, label %4

4:                                                ; preds = %2
  %5 = getelementptr inbounds nuw i8, ptr %0, i64 8
  %6 = load ptr, ptr %5, align 8
  %.not22 = icmp eq ptr %6, null
  br i1 %.not22, label %7, label %8

7:                                                ; preds = %1, %2, %4
  tail call void (ptr, i32, ptr, i64, ptr, ptr, ...) @ws_log_full(ptr noundef nonnull @.str.1, i32 noundef 5, ptr noundef nonnull @.str.2, i64 noundef 1229, ptr noundef nonnull @__func__.wtap_register_file_type_subtype, ptr noundef nonnull @.str.9)
  br label %49

8:                                                ; preds = %4
  %9 = getelementptr inbounds nuw i8, ptr %0, i64 40
  %10 = load i64, ptr %9, align 8
  %11 = icmp eq i64 %10, 0
  br i1 %11, label %16, label %12

12:                                               ; preds = %8
  %13 = getelementptr inbounds nuw i8, ptr %0, i64 48
  %14 = load ptr, ptr %13, align 8
  %15 = icmp eq ptr %14, null
  br i1 %15, label %16, label %17

16:                                               ; preds = %8, %12
  tail call void (ptr, i32, ptr, i64, ptr, ptr, ...) @ws_log_full(ptr noundef nonnull @.str.1, i32 noundef 5, ptr noundef nonnull @.str.2, i64 noundef 1238, ptr noundef nonnull @__func__.wtap_register_file_type_subtype, ptr noundef nonnull @.str.10, ptr noundef nonnull %6)
  br label %49

17:                                               ; preds = %12
  %18 = load ptr, ptr @type_subtype_name_map, align 8
  %19 = tail call ptr @g_hash_table_lookup(ptr noundef %18, ptr noundef nonnull %6)
  %.not.i = icmp eq ptr %19, null
  %spec.select.i = select i1 %.not.i, ptr %6, ptr %19
  %20 = load ptr, ptr @file_type_subtype_table_arr, align 8
  %21 = getelementptr inbounds nuw i8, ptr %20, i64 8
  %22 = load i32, ptr %21, align 8
  %23 = icmp sgt i32 %22, 0
  br i1 %23, label %.lr.ph.i, label %wtap_name_to_file_type_subtype.exit.thread

.lr.ph.i:                                         ; preds = %17
  %24 = load ptr, ptr @file_type_subtype_table, align 8
  %wide.trip.count.i = zext nneg i32 %22 to i64
  br label %25

25:                                               ; preds = %31, %.lr.ph.i
  %indvars.iv.i = phi i64 [ 0, %.lr.ph.i ], [ %indvars.iv.next.i, %31 ]
  %26 = getelementptr %struct.file_type_subtype_info, ptr %24, i64 %indvars.iv.i, i32 1
  %27 = load ptr, ptr %26, align 8
  %.not13.i = icmp eq ptr %27, null
  br i1 %.not13.i, label %31, label %28

28:                                               ; preds = %25
  %29 = tail call i32 @strcmp(ptr noundef nonnull dereferenceable(1) %spec.select.i, ptr noundef nonnull dereferenceable(1) %27) #23
  %30 = icmp eq i32 %29, 0
  br i1 %30, label %wtap_name_to_file_type_subtype.exit, label %31

31:                                               ; preds = %28, %25
  %indvars.iv.next.i = add nuw nsw i64 %indvars.iv.i, 1
  %exitcond.not.i = icmp eq i64 %indvars.iv.next.i, %wide.trip.count.i
  br i1 %exitcond.not.i, label %wtap_name_to_file_type_subtype.exit.thread, label %25, !llvm.loop !23

wtap_name_to_file_type_subtype.exit:              ; preds = %28
  %32 = load ptr, ptr %5, align 8
  tail call void (ptr, i32, ptr, i64, ptr, ptr, ...) @ws_log_full(ptr noundef nonnull @.str.1, i32 noundef 5, ptr noundef nonnull @.str.2, i64 noundef 1249, ptr noundef nonnull @__func__.wtap_register_file_type_subtype, ptr noundef nonnull @.str.11, ptr noundef %32)
  br label %49

wtap_name_to_file_type_subtype.exit.thread:       ; preds = %31, %17
  %33 = load i32, ptr @wtap_num_builtin_file_types_subtypes, align 4
  %34 = icmp ult i32 %33, %22
  br i1 %34, label %.lr.ph, label %._crit_edge

.lr.ph:                                           ; preds = %wtap_name_to_file_type_subtype.exit.thread
  %35 = load ptr, ptr @file_type_subtype_table, align 8
  %36 = zext i32 %33 to i64
  %wide.trip.count = zext i32 %22 to i64
  br label %37

37:                                               ; preds = %.lr.ph, %45
  %indvars.iv = phi i64 [ %36, %.lr.ph ], [ %indvars.iv.next, %45 ]
  %38 = getelementptr %struct.file_type_subtype_info, ptr %35, i64 %indvars.iv, i32 1
  %39 = load ptr, ptr %38, align 8
  %40 = icmp eq ptr %39, null
  br i1 %40, label %41, label %45

41:                                               ; preds = %37
  %42 = trunc nuw i64 %indvars.iv to i32
  %43 = load ptr, ptr %20, align 8
  %44 = getelementptr %struct.file_type_subtype_info, ptr %43, i64 %indvars.iv
  tail call void @llvm.memcpy.p0.p0.i64(ptr noundef align 8 dereferenceable(80) %44, ptr noundef nonnull align 8 dereferenceable(80) %0, i64 80, i1 false)
  br label %49

45:                                               ; preds = %37
  %indvars.iv.next = add nuw nsw i64 %indvars.iv, 1
  %exitcond.not = icmp eq i64 %indvars.iv.next, %wide.trip.count
  br i1 %exitcond.not, label %._crit_edge, label %37, !llvm.loop !24

._crit_edge:                                      ; preds = %45, %wtap_name_to_file_type_subtype.exit.thread
  %46 = tail call ptr @g_array_append_vals(ptr noundef %20, ptr noundef nonnull %0, i32 noundef 1)
  %47 = load ptr, ptr @file_type_subtype_table_arr, align 8
  %48 = load ptr, ptr %47, align 8
  store ptr %48, ptr @file_type_subtype_table, align 8
  br label %49

49:                                               ; preds = %._crit_edge, %41, %wtap_name_to_file_type_subtype.exit, %16, %7
  %.017 = phi i32 [ -1, %16 ], [ -1, %wtap_name_to_file_type_subtype.exit ], [ %42, %41 ], [ %22, %._crit_edge ], [ -1, %7 ]
  ret i32 %.017
}